; Function Attrs: mustprogress uwtable
define void @_ZNK6casadi14FunctionBuffer5statsB5cxx11Ev(ptr dead_on_unwind noalias writable sret(%"class.std::map") align 8 %0, ptr noundef nonnull align 8 dereferenceable(132) %1) local_unnamed_addr #4 align 2 {
  %3 = getelementptr inbounds nuw i8, ptr %1, i64 112
  %4 = load i64, ptr %3, align 8, !tbaa !787
  %5 = trunc i64 %4 to i32
  %6 = tail call noundef ptr @_ZNK6casadi8FunctionptEv(ptr noundef nonnull align 8 dereferenceable(8) %1), !noalias !818
  %7 = tail call noundef ptr @_ZNK6casadi8FunctionptEv(ptr noundef nonnull align 8 dereferenceable(8) %1), !noalias !818
  %8 = tail call noundef ptr @_ZNK6casadi13ProtoFunction6memoryEi(ptr noundef nonnull align 8 dereferenceable(168) %7, i32 noundef %5), !noalias !818
  %9 = load ptr, ptr %6, align 8, !tbaa !25, !noalias !818
  %10 = getelementptr inbounds nuw i8, ptr %9, i64 104
  %11 = load ptr, ptr %10, align 8, !noalias !818
  tail call void %11(ptr dead_on_unwind writable sret(%"class.std::map") align 8 %0, ptr noundef nonnull align 8 dereferenceable(168) %6, ptr noundef %8)
  ret void
}